	.file	"fir.c"
	.option nopic
	.attribute arch, "rv32i2p0"
	.attribute unaligned_access, 0
	.attribute stack_align, 16
	.text
.Ltext0:
	.cfi_sections	.debug_frame
	.file 0 "/home/ubuntu/lab-caravel_fir/testbench/counter_la_fir" "fir.c"
	.globl	ans
	.bss
	.align	2
	.type	ans, @object
	.size	ans, 256
ans:
	.zero	256
	.globl	taps
	.data
	.align	2
	.type	taps, @object
	.size	taps, 44
taps:
	.word	0
	.word	-10
	.word	-9
	.word	23
	.word	56
	.word	63
	.word	56
	.word	23
	.word	-9
	.word	-10
	.word	0
	.globl	inputbuffer
	.bss
	.align	2
	.type	inputbuffer, @object
	.size	inputbuffer, 44
inputbuffer:
	.zero	44
	.globl	outputsignal
	.align	2
	.type	outputsignal, @object
	.size	outputsignal, 44
outputsignal:
	.zero	44
	.text
	.align	2
	.type	flush_cpu_icache, @function
flush_cpu_icache:
.LFB21:
	.file 1 "../../firmware/system.h"
	.loc 1 15 1
	.cfi_startproc
	addi	sp,sp,-16
	.cfi_def_cfa_offset 16
	sw	s0,12(sp)
	.cfi_offset 8, -4
	addi	s0,sp,16
	.cfi_def_cfa 8, 0
	.loc 1 26 1
	nop
	lw	s0,12(sp)
	.cfi_restore 8
	.cfi_def_cfa 2, 16
	addi	sp,sp,16
	.cfi_def_cfa_offset 0
	jr	ra
	.cfi_endproc
.LFE21:
	.size	flush_cpu_icache, .-flush_cpu_icache
	.align	2
	.type	flush_cpu_dcache, @function
flush_cpu_dcache:
.LFB22:
	.loc 1 29 1
	.cfi_startproc
	addi	sp,sp,-16
	.cfi_def_cfa_offset 16
	sw	s0,12(sp)
	.cfi_offset 8, -4
	addi	s0,sp,16
	.cfi_def_cfa 8, 0
	.loc 1 33 1
	nop
	lw	s0,12(sp)
	.cfi_restore 8
	.cfi_def_cfa 2, 16
	addi	sp,sp,16
	.cfi_def_cfa_offset 0
	jr	ra
	.cfi_endproc
.LFE22:
	.size	flush_cpu_dcache, .-flush_cpu_dcache
	.section	.mprjram,"ax",@progbits
	.align	2
	.globl	initfir
	.type	initfir, @function
initfir:
.LFB316:
	.file 2 "fir.c"
	.loc 2 4 61
	.cfi_startproc
	addi	sp,sp,-16
	.cfi_def_cfa_offset 16
	sw	s0,12(sp)
	.cfi_offset 8, -4
	addi	s0,sp,16
	.cfi_def_cfa 8, 0
	.loc 2 5 42
	lui	a5,%hi(taps)
	addi	a5,a5,%lo(taps)
	lw	a4,0(a5)
	.loc 2 5 3
	li	a5,805306368
	addi	a5,a5,64
	.loc 2 5 36
	sw	a4,0(a5)
	.loc 2 6 42
	lui	a5,%hi(taps)
	addi	a5,a5,%lo(taps)
	lw	a4,4(a5)
	.loc 2 6 3
	li	a5,805306368
	addi	a5,a5,68
	.loc 2 6 36
	sw	a4,0(a5)
	.loc 2 7 42
	lui	a5,%hi(taps)
	addi	a5,a5,%lo(taps)
	lw	a4,8(a5)
	.loc 2 7 3
	li	a5,805306368
	addi	a5,a5,72
	.loc 2 7 36
	sw	a4,0(a5)
	.loc 2 8 42
	lui	a5,%hi(taps)
	addi	a5,a5,%lo(taps)
	lw	a4,12(a5)
	.loc 2 8 3
	li	a5,805306368
	addi	a5,a5,76
	.loc 2 8 36
	sw	a4,0(a5)
	.loc 2 9 42
	lui	a5,%hi(taps)
	addi	a5,a5,%lo(taps)
	lw	a4,16(a5)
	.loc 2 9 3
	li	a5,805306368
	addi	a5,a5,80
	.loc 2 9 36
	sw	a4,0(a5)
	.loc 2 10 42
	lui	a5,%hi(taps)
	addi	a5,a5,%lo(taps)
	lw	a4,20(a5)
	.loc 2 10 3
	li	a5,805306368
	addi	a5,a5,84
	.loc 2 10 36
	sw	a4,0(a5)
	.loc 2 11 42
	lui	a5,%hi(taps)
	addi	a5,a5,%lo(taps)
	lw	a4,24(a5)
	.loc 2 11 3
	li	a5,805306368
	addi	a5,a5,88
	.loc 2 11 36
	sw	a4,0(a5)
	.loc 2 12 42
	lui	a5,%hi(taps)
	addi	a5,a5,%lo(taps)
	lw	a4,28(a5)
	.loc 2 12 3
	li	a5,805306368
	addi	a5,a5,92
	.loc 2 12 36
	sw	a4,0(a5)
	.loc 2 13 42
	lui	a5,%hi(taps)
	addi	a5,a5,%lo(taps)
	lw	a4,32(a5)
	.loc 2 13 3
	li	a5,805306368
	addi	a5,a5,96
	.loc 2 13 36
	sw	a4,0(a5)
	.loc 2 14 42
	lui	a5,%hi(taps)
	addi	a5,a5,%lo(taps)
	lw	a4,36(a5)
	.loc 2 14 3
	li	a5,805306368
	addi	a5,a5,100
	.loc 2 14 36
	sw	a4,0(a5)
	.loc 2 15 42
	lui	a5,%hi(taps)
	addi	a5,a5,%lo(taps)
	lw	a4,40(a5)
	.loc 2 15 3
	li	a5,805306368
	addi	a5,a5,104
	.loc 2 15 36
	sw	a4,0(a5)
	.loc 2 17 3
	li	a5,805306368
	addi	a5,a5,16
	.loc 2 17 36
	li	a4,64
	sw	a4,0(a5)
	.loc 2 18 1
	nop
	lw	s0,12(sp)
	.cfi_restore 8
	.cfi_def_cfa 2, 16
	addi	sp,sp,16
	.cfi_def_cfa_offset 0
	jr	ra
	.cfi_endproc
.LFE316:
	.size	initfir, .-initfir
	.align	2
	.globl	fir
	.type	fir, @function
fir:
.LFB317:
	.loc 2 20 56
	.cfi_startproc
	addi	sp,sp,-288
	.cfi_def_cfa_offset 288
	sw	ra,284(sp)
	sw	s0,280(sp)
	.cfi_offset 1, -4
	.cfi_offset 8, -8
	addi	s0,sp,288
	.cfi_def_cfa 8, 0
	.loc 2 21 2
	call	initfir
	.loc 2 24 3
	li	a5,637534208
	addi	a5,a5,12
	.loc 2 24 36
	li	a4,10813440
	sw	a4,0(a5)
	.loc 2 25 3
	li	a5,805306368
	.loc 2 25 36
	li	a4,1
	sw	a4,0(a5)
.LBB2:
	.loc 2 28 10
	sw	zero,-20(s0)
	.loc 2 28 2
	j	.L5
.L6:
	.loc 2 29 8 discriminator 3
	lw	a5,-20(s0)
	slli	a5,a5,2
	addi	a5,a5,-16
	add	a5,a5,s0
	lw	a4,-20(s0)
	sw	a4,-268(a5)
	.loc 2 28 59 discriminator 3
	lw	a5,-20(s0)
	addi	a5,a5,1
	sw	a5,-20(s0)
.L5:
	.loc 2 28 23 discriminator 1
	li	a5,805306368
	addi	a5,a5,16
	lw	a4,0(a5)
	.loc 2 28 20 discriminator 1
	lw	a5,-20(s0)
	bgtu	a4,a5,.L6
.LBE2:
	.loc 2 31 17
	li	a5,805306368
	lw	a5,0(a5)
	.loc 2 31 6
	sw	a5,-24(s0)
.LBB3:
	.loc 2 32 10
	sw	zero,-28(s0)
	.loc 2 32 2
	j	.L7
.L10:
	.loc 2 34 15
	li	a5,805306368
	lw	a5,0(a5)
	.loc 2 34 12
	sw	a5,-24(s0)
.L8:
	.loc 2 33 13
	lw	a5,-28(s0)
	ble	a5,zero,.L9
	.loc 2 33 16 discriminator 1
	lw	a5,-24(s0)
	andi	a5,a5,16
	.loc 2 33 13 discriminator 1
	beq	a5,zero,.L10
.L9:
	.loc 2 36 40
	lw	a5,-28(s0)
	slli	a5,a5,2
	addi	a5,a5,-16
	add	a5,a5,s0
	lw	a4,-268(a5)
	.loc 2 36 4
	li	a5,805306368
	addi	a5,a5,128
	.loc 2 36 37
	sw	a4,0(a5)
	.loc 2 38 8
	j	.L11
.L12:
	.loc 2 39 15
	li	a5,805306368
	lw	a5,0(a5)
	.loc 2 39 12
	sw	a5,-24(s0)
.L11:
	.loc 2 38 10
	lw	a5,-24(s0)
	andi	a5,a5,32
	beq	a5,zero,.L12
	.loc 2 42 13 discriminator 2
	li	a5,805306368
	addi	a5,a5,132
	lw	a5,0(a5)
	mv	a3,a5
	.loc 2 42 10 discriminator 2
	lui	a5,%hi(ans)
	addi	a4,a5,%lo(ans)
	lw	a5,-28(s0)
	slli	a5,a5,2
	add	a5,a4,a5
	sw	a3,0(a5)
	.loc 2 32 59 discriminator 2
	lw	a5,-28(s0)
	addi	a5,a5,1
	sw	a5,-28(s0)
.L7:
	.loc 2 32 23 discriminator 1
	li	a5,805306368
	addi	a5,a5,16
	lw	a4,0(a5)
	.loc 2 32 20 discriminator 1
	lw	a5,-28(s0)
	bgtu	a4,a5,.L8
.LBE3:
	.loc 2 45 13
	li	a5,805306368
	lw	a5,0(a5)
	.loc 2 45 10
	sw	a5,-24(s0)
	.loc 2 47 42
	lui	a5,%hi(ans)
	addi	a5,a5,%lo(ans)
	lw	a5,252(a5)
	.loc 2 47 47
	slli	a4,a5,24
	.loc 2 47 54
	li	a5,5898240
	or	a4,a4,a5
	.loc 2 47 3
	li	a5,637534208
	addi	a5,a5,12
	.loc 2 47 36
	sw	a4,0(a5)
	.loc 2 50 9
	lui	a5,%hi(ans)
	addi	a5,a5,%lo(ans)
	.loc 2 51 1
	mv	a0,a5
	lw	ra,284(sp)
	.cfi_restore 1
	lw	s0,280(sp)
	.cfi_restore 8
	.cfi_def_cfa 2, 288
	addi	sp,sp,288
	.cfi_def_cfa_offset 0
	jr	ra
	.cfi_endproc
.LFE317:
	.size	fir, .-fir
	.text
.Letext0:
	.file 3 "fir.h"
	.file 4 "/opt/riscv/lib/gcc/riscv32-unknown-elf/12.1.0/include/stdint-gcc.h"